target datalayout = "e-m:e-p270:32:32-p271:32:32-p272:64:64-i64:64-i128:128-f80:128-n8:16:32:64-S128"
target triple = "x86_64-pc-linux-gnu"

%struct._voip_calls_tapinfo = type { ptr, ptr, ptr, ptr, i32, ptr, [1 x ptr], i32, ptr, i32, i32, i32, ptr, ptr, i32, ptr, i32, i8, i32, ptr, i32, i32, i32, i8, i32, ptr, ptr, ptr, i8, i32, i32, i32, i16, i32, i32, i32, i32, i32, i32, i32, i32, i32 }
%struct._seq_analysis_info = type { ptr, i32, i32, ptr, ptr, [40 x %struct._address], i32 }
%struct._address = type { i32, i32, ptr, ptr }
%struct.nstime_t = type { i64, i32 }
%struct._GList = type { ptr, ptr, ptr }
%struct._rtpstream_info = type { %struct._rtpstream_id, i8, ptr, [256 x ptr], ptr, i32, i32, i32, i32, i32, i32, ptr, ptr, %struct.nstime_t, %struct.nstime_t, %struct.nstime_t, i16, i32, i32, %struct._tap_rtp_stat_t, i32, ptr }
%struct._rtpstream_id = type { %struct._address, i16, %struct._address, i16, i32 }
%struct._tap_rtp_stat_t = type { i32, i32, i16, i64, i64, double, [300 x %struct._bw_history_item], i16, i16, i32, i32, double, double, double, double, double, double, double, double, double, double, double, double, double, double, double, double, double, double, double, i32, i16, i16, i32, i32, i32, i32, i16, i32, i32, i32 }
%struct._bw_history_item = type { double, i32 }
%struct._frame_data = type { i32, i32, i32, i32, i64, ptr, ptr, ptr, i16, i16, %struct.nstime_t, %struct.nstime_t, i32, i32, i8 }
%struct._seq_analysis_item = type { i32, %struct._address, i16, %struct._address, i16, ptr, ptr, ptr, i16, i32, i32, i32, i32, i32, i32, i16, i32, ptr }

; Function Attrs: mustprogress uwtable
define void @_ZN15VoipCallsDialog7tapDrawEPv(ptr noundef %0) #0 align 2 {
  %2 = alloca ptr, align 8
  %3 = alloca ptr, align 8
  %4 = alloca ptr, align 8
  %5 = alloca ptr, align 8
  %6 = alloca ptr, align 8
  %7 = alloca ptr, align 8
  %8 = alloca ptr, align 8
  store ptr %0, ptr %2, align 8
  %9 = load ptr, ptr %2, align 8
  store ptr %9, ptr %3, align 8
  %10 = load ptr, ptr %3, align 8
  %11 = icmp ne ptr %10, null
  br i1 %11, label %12, label %17

12:                                               ; preds = %1
  %13 = load ptr, ptr %3, align 8
  %14 = getelementptr inbounds %struct._voip_calls_tapinfo, ptr %13, i32 0, i32 40
  %15 = load i32, ptr %14, align 8
  %16 = icmp ne i32 %15, 0
  br i1 %16, label %18, label %17

17:                                               ; preds = %12, %1
  br label %101

18:                                               ; preds = %12
  %19 = load ptr, ptr %3, align 8
  %20 = getelementptr inbounds %struct._voip_calls_tapinfo, ptr %19, i32 0, i32 12
  %21 = load ptr, ptr %20, align 8
  %22 = getelementptr inbounds %struct._seq_analysis_info, ptr %21, i32 0, i32 3
  %23 = load ptr, ptr %22, align 8
  %24 = call ptr @g_queue_peek_nth_link(ptr noundef %23, i32 noundef 0)
  store ptr %24, ptr %4, align 8
  br label %25

25:                                               ; preds = %91, %18
  %26 = load ptr, ptr %4, align 8
  %27 = icmp ne ptr %26, null
  br i1 %27, label %28, label %93

28:                                               ; preds = %25
  %29 = load ptr, ptr %3, align 8
  %30 = getelementptr inbounds %struct._voip_calls_tapinfo, ptr %29, i32 0, i32 15
  %31 = load ptr, ptr %30, align 8
  %32 = call ptr @g_list_first(ptr noundef %31)
  store ptr %32, ptr %5, align 8
  br label %33

33:                                               ; preds = %80, %28
  %34 = load ptr, ptr %5, align 8
  %35 = icmp ne ptr %34, null
  br i1 %35, label %36, label %82

36:                                               ; preds = %33
  %37 = load ptr, ptr %4, align 8
  %38 = icmp ne ptr %37, null
  br i1 %38, label %39, label %43

39:                                               ; preds = %36
  %40 = load ptr, ptr %4, align 8
  %41 = getelementptr inbounds %struct._GList, ptr %40, i32 0, i32 0
  %42 = load ptr, ptr %41, align 8
  br label %44

43:                                               ; preds = %36
  br label %44

44:                                               ; preds = %43, %39
  %45 = phi ptr [ %42, %39 ], [ null, %43 ]
  store ptr %45, ptr %6, align 8
  %46 = load ptr, ptr %5, align 8
  %47 = icmp ne ptr %46, null
  br i1 %47, label %48, label %52

48:                                               ; preds = %44
  %49 = load ptr, ptr %5, align 8
  %50 = getelementptr inbounds %struct._GList, ptr %49, i32 0, i32 0
  %51 = load ptr, ptr %50, align 8
  br label %53

52:                                               ; preds = %44
  br label %53

53:                                               ; preds = %52, %48
  %54 = phi ptr [ %51, %48 ], [ null, %52 ]
  store ptr %54, ptr %7, align 8
  %55 = load ptr, ptr %7, align 8
  %56 = getelementptr inbounds %struct._rtpstream_info, ptr %55, i32 0, i32 11
  %57 = load ptr, ptr %56, align 8
  %58 = getelementptr inbounds %struct._frame_data, ptr %57, i32 0, i32 0
  %59 = load i32, ptr %58, align 8
  %60 = load ptr, ptr %6, align 8
  %61 = getelementptr inbounds %struct._seq_analysis_item, ptr %60, i32 0, i32 0
  %62 = load i32, ptr %61, align 8
  %63 = icmp eq i32 %59, %62
  br i1 %63, label %64, label %71

64:                                               ; preds = %53
  %65 = load ptr, ptr %6, align 8
  %66 = getelementptr inbounds %struct._seq_analysis_item, ptr %65, i32 0, i32 8
  %67 = load i16, ptr %66, align 8
  %68 = zext i16 %67 to i32
  %69 = load ptr, ptr %7, align 8
  %70 = getelementptr inbounds %struct._rtpstream_info, ptr %69, i32 0, i32 9
  store i32 %68, ptr %70, align 8
  br label %71

71:                                               ; preds = %64, %53
  br label %72

72:                                               ; preds = %71
  %73 = load ptr, ptr %5, align 8
  %74 = icmp ne ptr %73, null
  br i1 %74, label %75, label %79

75:                                               ; preds = %72
  %76 = load ptr, ptr %5, align 8
  %77 = getelementptr inbounds %struct._GList, ptr %76, i32 0, i32 1
  %78 = load ptr, ptr %77, align 8
  br label %80

79:                                               ; preds = %72
  br label %80

80:                                               ; preds = %79, %75
  %81 = phi ptr [ %78, %75 ], [ null, %79 ]
  store ptr %81, ptr %5, align 8
  br label %33, !llvm.loop !4

82:                                               ; preds = %33
  br label %83

83:                                               ; preds = %82
  %84 = load ptr, ptr %4, align 8
  %85 = icmp ne ptr %84, null
  br i1 %85, label %86, label %90

86:                                               ; preds = %83
  %87 = load ptr, ptr %4, align 8
  %88 = getelementptr inbounds %struct._GList, ptr %87, i32 0, i32 1
  %89 = load ptr, ptr %88, align 8
  br label %91

90:                                               ; preds = %83
  br label %91

91:                                               ; preds = %90, %86
  %92 = phi ptr [ %89, %86 ], [ null, %90 ]
  store ptr %92, ptr %4, align 8
  br label %25, !llvm.loop !6

93:                                               ; preds = %25
  %94 = load ptr, ptr %3, align 8
  %95 = getelementptr inbounds %struct._voip_calls_tapinfo, ptr %94, i32 0, i32 3
  %96 = load ptr, ptr %95, align 8
  store ptr %96, ptr %8, align 8
  %97 = load ptr, ptr %8, align 8
  %98 = icmp ne ptr %97, null
  br i1 %98, label %99, label %101

99:                                               ; preds = %93
  %100 = load ptr, ptr %8, align 8
  call void @_ZN15VoipCallsDialog11updateCallsEv(ptr noundef nonnull align 8 dereferenceable(480) %100)
  br label %101

101:                                              ; preds = %99, %93, %17
  ret void
}