; Function Attrs: mustprogress uwtable
define void @_ZN15VoipCallsDialog7tapDrawEPv(ptr noundef readonly %0) #0 align 2 {
  %.not = icmp eq ptr %0, null
  br i1 %.not, label %35, label %2

2:                                                ; preds = %1
  %3 = getelementptr inbounds i8, ptr %0, i64 240
  %4 = load i32, ptr %3, align 8
  %.not25 = icmp eq i32 %4, 0
  br i1 %.not25, label %35, label %5

5:                                                ; preds = %2
  %6 = getelementptr inbounds i8, ptr %0, i64 88
  %7 = load ptr, ptr %6, align 8
  %8 = getelementptr inbounds i8, ptr %7, i64 16
  %9 = load ptr, ptr %8, align 8
  %10 = tail call ptr @g_queue_peek_nth_link(ptr noundef %9, i32 noundef 0)
  %.not2631 = icmp eq ptr %10, null
  br i1 %.not2631, label %._crit_edge35, label %.lr.ph34

.lr.ph34:                                         ; preds = %5
  %11 = getelementptr inbounds i8, ptr %0, i64 112
  br label %12

12:                                               ; preds = %.lr.ph34, %._crit_edge
  %.032 = phi ptr [ %10, %.lr.ph34 ], [ %31, %._crit_edge ]
  %13 = load ptr, ptr %11, align 8
  %14 = tail call ptr @g_list_first(ptr noundef %13)
  %.not2829 = icmp eq ptr %14, null
  br i1 %.not2829, label %._crit_edge, label %.lr.ph

.lr.ph:                                           ; preds = %12, %27
  %.02230 = phi ptr [ %29, %27 ], [ %14, %12 ]
  %15 = load ptr, ptr %.032, align 8
  %16 = load ptr, ptr %.02230, align 8
  %17 = getelementptr inbounds i8, ptr %16, i64 2160
  %18 = load ptr, ptr %17, align 8
  %19 = load i32, ptr %18, align 8
  %20 = load i32, ptr %15, align 8
  %21 = icmp eq i32 %19, %20
  br i1 %21, label %22, label %27

22:                                               ; preds = %.lr.ph
  %23 = getelementptr inbounds i8, ptr %15, i64 96
  %24 = load i16, ptr %23, align 8
  %25 = zext i16 %24 to i32
  %26 = getelementptr inbounds i8, ptr %16, i64 2152
  store i32 %25, ptr %26, align 8
  br label %27

27:                                               ; preds = %.lr.ph, %22
  %28 = getelementptr inbounds i8, ptr %.02230, i64 8
  %29 = load ptr, ptr %28, align 8
  %.not28 = icmp eq ptr %29, null
  br i1 %.not28, label %._crit_edge, label %.lr.ph, !llvm.loop !16

._crit_edge:                                      ; preds = %27, %12
  %30 = getelementptr inbounds i8, ptr %.032, i64 8
  %31 = load ptr, ptr %30, align 8
  %.not26 = icmp eq ptr %31, null
  br i1 %.not26, label %._crit_edge35, label %12, !llvm.loop !18

._crit_edge35:                                    ; preds = %._crit_edge, %5
  %32 = getelementptr inbounds i8, ptr %0, i64 24
  %33 = load ptr, ptr %32, align 8
  %.not27 = icmp eq ptr %33, null
  br i1 %.not27, label %35, label %34

34:                                               ; preds = %._crit_edge35
  tail call void @_ZN15VoipCallsDialog11updateCallsEv(ptr noundef nonnull align 8 dereferenceable(480) %33)
  br label %35

35:                                               ; preds = %1, %2, %34, %._crit_edge35
  ret void
}